target datalayout = "e-m:e-p270:32:32-p271:32:32-p272:64:64-i64:64-i128:128-f80:128-n8:16:32:64-S128"
target triple = "x86_64-unknown-linux-gnu"

%class.anon.10 = type { ptr }

; Function Attrs: inlinehint mustprogress uwtable
define internal void @"_ZZN8QuantLib18LevenbergMarquardt8minimizeERNS_7ProblemERKNS_11EndCriteriaEENK3$_1clIiiPdS8_PiEEDaT_T0_T1_T2_T3_"(ptr noundef nonnull align 8 dereferenceable(8) %this, i32 noundef %m, i32 noundef %n, ptr noundef %x, ptr noundef %fjac, ptr noundef %iflag) #4 align 2 {
entry:
  %this.addr = alloca ptr, align 8
  %m.addr = alloca i32, align 4
  %n.addr = alloca i32, align 4
  %x.addr = alloca ptr, align 8
  %fjac.addr = alloca ptr, align 8
  %iflag.addr = alloca ptr, align 8
  store ptr %this, ptr %this.addr, align 8, !tbaa !3
  store i32 %m, ptr %m.addr, align 4, !tbaa !37
  store i32 %n, ptr %n.addr, align 4, !tbaa !37
  store ptr %x, ptr %x.addr, align 8, !tbaa !3
  store ptr %fjac, ptr %fjac.addr, align 8, !tbaa !3
  store ptr %iflag, ptr %iflag.addr, align 8, !tbaa !3
  %this1 = load ptr, ptr %this.addr, align 8
  %0 = getelementptr inbounds nuw %class.anon.10, ptr %this1, i32 0, i32 0
  %1 = load ptr, ptr %0, align 8, !tbaa !40
  %2 = load i32, ptr %m.addr, align 4, !tbaa !37
  %3 = load i32, ptr %n.addr, align 4, !tbaa !37
  %4 = load ptr, ptr %x.addr, align 8, !tbaa !3
  %5 = load ptr, ptr %fjac.addr, align 8, !tbaa !3
  %6 = load ptr, ptr %iflag.addr, align 8, !tbaa !3
  call void @_ZN8QuantLib18LevenbergMarquardt6jacFcnEiiPdS1_Pi(ptr noundef nonnull align 8 dereferenceable(89) %1, i32 noundef %2, i32 noundef %3, ptr noundef %4, ptr noundef %5, ptr noundef %6)
  ret void
}

; Function Attrs: mustprogress nounwind uwtable
define linkonce_odr noundef ptr @_ZNKSt9_Any_data9_M_accessEv(ptr noundef nonnull align 8 dereferenceable(16) %this) #2 comdat align 2 {
entry:
  %this.addr = alloca ptr, align 8
  store ptr %this, ptr %this.addr, align 8, !tbaa !3
  %this1 = load ptr, ptr %this.addr, align 8
  %arrayidx = getelementptr inbounds [16 x i8], ptr %this1, i64 0, i64 0
  ret ptr %arrayidx
}

; Function Attrs: mustprogress uwtable
define internal void @"_ZSt13__invoke_implIvRZN8QuantLib18LevenbergMarquardt8minimizeERNS0_7ProblemERKNS0_11EndCriteriaEE3$_1JiiPdS9_PiEET_St14__invoke_otherOT0_DpOT1_"(ptr noundef nonnull align 8 dereferenceable(8) %__f, ptr noundef nonnull align 4 dereferenceable(4) %__args, ptr noundef nonnull align 4 dereferenceable(4) %__args1, ptr noundef nonnull align 8 dereferenceable(8) %__args3, ptr noundef nonnull align 8 dereferenceable(8) %__args5, ptr noundef nonnull align 8 dereferenceable(8) %__args7) #0 {
entry:
  %__f.addr = alloca ptr, align 8
  %__args.addr = alloca ptr, align 8
  %__args.addr2 = alloca ptr, align 8
  %__args.addr4 = alloca ptr, align 8
  %__args.addr6 = alloca ptr, align 8
  %__args.addr8 = alloca ptr, align 8
  store ptr %__f, ptr %__f.addr, align 8, !tbaa !3
  store ptr %__args, ptr %__args.addr, align 8, !tbaa !3
  store ptr %__args1, ptr %__args.addr2, align 8, !tbaa !3
  store ptr %__args3, ptr %__args.addr4, align 8, !tbaa !3
  store ptr %__args5, ptr %__args.addr6, align 8, !tbaa !3
  store ptr %__args7, ptr %__args.addr8, align 8, !tbaa !3
  %0 = load ptr, ptr %__f.addr, align 8, !tbaa !3
  %1 = load ptr, ptr %__args.addr, align 8, !tbaa !3
  %2 = load i32, ptr %1, align 4, !tbaa !37
  %3 = load ptr, ptr %__args.addr2, align 8, !tbaa !3
  %4 = load i32, ptr %3, align 4, !tbaa !37
  %5 = load ptr, ptr %__args.addr4, align 8, !tbaa !3
  %6 = load ptr, ptr %5, align 8, !tbaa !3
  %7 = load ptr, ptr %__args.addr6, align 8, !tbaa !3
  %8 = load ptr, ptr %7, align 8, !tbaa !3
  %9 = load ptr, ptr %__args.addr8, align 8, !tbaa !3
  %10 = load ptr, ptr %9, align 8, !tbaa !3
  call void @"_ZZN8QuantLib18LevenbergMarquardt8minimizeERNS_7ProblemERKNS_11EndCriteriaEENK3$_1clIiiPdS8_PiEEDaT_T0_T1_T2_T3_"(ptr noundef nonnull align 8 dereferenceable(8) %0, i32 noundef %2, i32 noundef %4, ptr noundef %6, ptr noundef %8, ptr noundef %10)
  ret void
}

; Function Attrs: mustprogress nounwind uwtable
define internal noundef nonnull align 8 dereferenceable(8) ptr @"_ZNKSt9_Any_data9_M_accessIZN8QuantLib18LevenbergMarquardt8minimizeERNS1_7ProblemERKNS1_11EndCriteriaEE3$_1EERKT_v"(ptr noundef nonnull align 8 dereferenceable(16) %this) #2 align 2 {
entry:
  %this.addr = alloca ptr, align 8
  store ptr %this, ptr %this.addr, align 8, !tbaa !3
  %this1 = load ptr, ptr %this.addr, align 8
  %call = call noundef ptr @_ZNKSt9_Any_data9_M_accessEv(ptr noundef nonnull align 8 dereferenceable(16) %this1) #17
  ret ptr %call
}

; Function Attrs: mustprogress uwtable
define internal void @"_ZSt10__invoke_rIvRZN8QuantLib18LevenbergMarquardt8minimizeERNS0_7ProblemERKNS0_11EndCriteriaEE3$_1JiiPdS9_PiEENSt9enable_ifIX16is_invocable_r_vIT_T0_DpT1_EESC_E4typeEOSD_DpOSE_"(ptr noundef nonnull align 8 dereferenceable(8) %__fn, ptr noundef nonnull align 4 dereferenceable(4) %__args, ptr noundef nonnull align 4 dereferenceable(4) %__args1, ptr noundef nonnull align 8 dereferenceable(8) %__args3, ptr noundef nonnull align 8 dereferenceable(8) %__args5, ptr noundef nonnull align 8 dereferenceable(8) %__args7) #0 {
entry:
  %__fn.addr = alloca ptr, align 8
  %__args.addr = alloca ptr, align 8
  %__args.addr2 = alloca ptr, align 8
  %__args.addr4 = alloca ptr, align 8
  %__args.addr6 = alloca ptr, align 8
  %__args.addr8 = alloca ptr, align 8
  store ptr %__fn, ptr %__fn.addr, align 8, !tbaa !3
  store ptr %__args, ptr %__args.addr, align 8, !tbaa !3
  store ptr %__args1, ptr %__args.addr2, align 8, !tbaa !3
  store ptr %__args3, ptr %__args.addr4, align 8, !tbaa !3
  store ptr %__args5, ptr %__args.addr6, align 8, !tbaa !3
  store ptr %__args7, ptr %__args.addr8, align 8, !tbaa !3
  %0 = load ptr, ptr %__fn.addr, align 8, !tbaa !3
  %1 = load ptr, ptr %__args.addr, align 8, !tbaa !3
  %2 = load ptr, ptr %__args.addr2, align 8, !tbaa !3
  %3 = load ptr, ptr %__args.addr4, align 8, !tbaa !3
  %4 = load ptr, ptr %__args.addr6, align 8, !tbaa !3
  %5 = load ptr, ptr %__args.addr8, align 8, !tbaa !3
  call void @"_ZSt13__invoke_implIvRZN8QuantLib18LevenbergMarquardt8minimizeERNS0_7ProblemERKNS0_11EndCriteriaEE3$_1JiiPdS9_PiEET_St14__invoke_otherOT0_DpOT1_"(ptr noundef nonnull align 8 dereferenceable(8) %0, ptr noundef nonnull align 4 dereferenceable(4) %1, ptr noundef nonnull align 4 dereferenceable(4) %2, ptr noundef nonnull align 8 dereferenceable(8) %3, ptr noundef nonnull align 8 dereferenceable(8) %4, ptr noundef nonnull align 8 dereferenceable(8) %5)
  ret void
}

; Function Attrs: mustprogress nounwind uwtable
define internal noundef ptr @"_ZNSt14_Function_base13_Base_managerIZN8QuantLib18LevenbergMarquardt8minimizeERNS1_7ProblemERKNS1_11EndCriteriaEE3$_1E14_M_get_pointerERKSt9_Any_data"(ptr noundef nonnull align 8 dereferenceable(16) %__source) #2 align 2 {
entry:
  %__source.addr = alloca ptr, align 8
  %__f = alloca ptr, align 8
  store ptr %__source, ptr %__source.addr, align 8, !tbaa !3
  call void @llvm.lifetime.start.p0(i64 8, ptr %__f) #17
  %0 = load ptr, ptr %__source.addr, align 8, !tbaa !3
  %call = call noundef nonnull align 8 dereferenceable(8) ptr @"_ZNKSt9_Any_data9_M_accessIZN8QuantLib18LevenbergMarquardt8minimizeERNS1_7ProblemERKNS1_11EndCriteriaEE3$_1EERKT_v"(ptr noundef nonnull align 8 dereferenceable(16) %0) #17
  store ptr %call, ptr %__f, align 8, !tbaa !3
  %1 = load ptr, ptr %__f, align 8, !tbaa !3
  call void @llvm.lifetime.end.p0(i64 8, ptr %__f) #17
  ret ptr %1
}

; Function Attrs: mustprogress uwtable
define internal void @"_ZNSt17_Function_handlerIFviiPdS0_PiEZN8QuantLib18LevenbergMarquardt8minimizeERNS3_7ProblemERKNS3_11EndCriteriaEE3$_1E9_M_invokeERKSt9_Any_dataOiSF_OS0_SG_OS1_"(ptr noundef nonnull align 8 dereferenceable(16) %__functor, ptr noundef nonnull align 4 dereferenceable(4) %__args, ptr noundef nonnull align 4 dereferenceable(4) %__args1, ptr noundef nonnull align 8 dereferenceable(8) %__args3, ptr noundef nonnull align 8 dereferenceable(8) %__args5, ptr noundef nonnull align 8 dereferenceable(8) %__args7) #0 align 2 {
entry:
  %__functor.addr = alloca ptr, align 8
  %__args.addr = alloca ptr, align 8
  %__args.addr2 = alloca ptr, align 8
  %__args.addr4 = alloca ptr, align 8
  %__args.addr6 = alloca ptr, align 8
  %__args.addr8 = alloca ptr, align 8
  store ptr %__functor, ptr %__functor.addr, align 8, !tbaa !3
  store ptr %__args, ptr %__args.addr, align 8, !tbaa !3
  store ptr %__args1, ptr %__args.addr2, align 8, !tbaa !3
  store ptr %__args3, ptr %__args.addr4, align 8, !tbaa !3
  store ptr %__args5, ptr %__args.addr6, align 8, !tbaa !3
  store ptr %__args7, ptr %__args.addr8, align 8, !tbaa !3
  %0 = load ptr, ptr %__functor.addr, align 8, !tbaa !3
  %call = call noundef ptr @"_ZNSt14_Function_base13_Base_managerIZN8QuantLib18LevenbergMarquardt8minimizeERNS1_7ProblemERKNS1_11EndCriteriaEE3$_1E14_M_get_pointerERKSt9_Any_data"(ptr noundef nonnull align 8 dereferenceable(16) %0) #17
  %1 = load ptr, ptr %__args.addr, align 8, !tbaa !3
  %2 = load ptr, ptr %__args.addr2, align 8, !tbaa !3
  %3 = load ptr, ptr %__args.addr4, align 8, !tbaa !3
  %4 = load ptr, ptr %__args.addr6, align 8, !tbaa !3
  %5 = load ptr, ptr %__args.addr8, align 8, !tbaa !3
  call void @"_ZSt10__invoke_rIvRZN8QuantLib18LevenbergMarquardt8minimizeERNS0_7ProblemERKNS0_11EndCriteriaEE3$_1JiiPdS9_PiEENSt9enable_ifIX16is_invocable_r_vIT_T0_DpT1_EESC_E4typeEOSD_DpOSE_"(ptr noundef nonnull align 8 dereferenceable(8) %call, ptr noundef nonnull align 4 dereferenceable(4) %1, ptr noundef nonnull align 4 dereferenceable(4) %2, ptr noundef nonnull align 8 dereferenceable(8) %3, ptr noundef nonnull align 8 dereferenceable(8) %4, ptr noundef nonnull align 8 dereferenceable(8) %5)
  ret void
}