; Function Attrs: mustprogress uwtable
define internal void @"_ZNSt17_Function_handlerIFviiPdS0_PiEZN8QuantLib18LevenbergMarquardt8minimizeERNS3_7ProblemERKNS3_11EndCriteriaEE3$_1E9_M_invokeERKSt9_Any_dataOiSF_OS0_SG_OS1_"(ptr nocapture noundef nonnull readonly align 8 dereferenceable(16) %__functor, ptr nocapture noundef nonnull readonly align 4 dereferenceable(4) %__args, ptr nocapture noundef nonnull readonly align 4 dereferenceable(4) %__args1, ptr nocapture noundef nonnull readonly align 8 dereferenceable(8) %__args3, ptr nocapture noundef nonnull readonly align 8 dereferenceable(8) %__args5, ptr nocapture noundef nonnull readonly align 8 dereferenceable(8) %__args7) #2 align 2 {
entry:
  %call.val = load ptr, ptr %__functor, align 8, !tbaa !75
  %__args.val = load i32, ptr %__args, align 4, !tbaa !41
  %__args1.val = load i32, ptr %__args1, align 4, !tbaa !41
  %__args3.val = load ptr, ptr %__args3, align 8, !tbaa !35
  %__args5.val = load ptr, ptr %__args5, align 8, !tbaa !35
  tail call void @_ZN8QuantLib18LevenbergMarquardt6jacFcnEiiPdS1_Pi(ptr noundef nonnull readonly align 8 dereferenceable(89) %call.val, i32 noundef %__args.val, i32 noundef %__args1.val, ptr noundef readonly %__args3.val, ptr noundef %__args5.val, ptr readnone poison)
  ret void
}